; Function Attrs: mustprogress nofree norecurse nosync nounwind willreturn memory(argmem: read) uwtable
define noundef signext i8 @_ZNK6icu_759ScriptSet10intersectsERKS0_(ptr nocapture noundef nonnull readonly align 4 dereferenceable(28) %this, ptr nocapture noundef nonnull readonly align 4 dereferenceable(28) %other) local_unnamed_addr #5 align 2 {
entry:
  br label %for.body

for.cond:                                         ; preds = %for.body
  %indvars.iv.next = add nuw nsw i64 %indvars.iv, 1
  %exitcond.not = icmp eq i64 %indvars.iv.next, 7
  br i1 %exitcond.not, label %return, label %for.body, !llvm.loop !8

for.body:                                         ; preds = %entry, %for.cond
  %indvars.iv = phi i64 [ 0, %entry ], [ %indvars.iv.next, %for.cond ]
  %arrayidx = getelementptr inbounds [7 x i32], ptr %this, i64 0, i64 %indvars.iv
  %0 = load i32, ptr %arrayidx, align 4
  %arrayidx4 = getelementptr inbounds [7 x i32], ptr %other, i64 0, i64 %indvars.iv
  %1 = load i32, ptr %arrayidx4, align 4
  %and = and i32 %1, %0
  %cmp5.not = icmp eq i32 %and, 0
  br i1 %cmp5.not, label %for.cond, label %return

return:                                           ; preds = %for.cond, %for.body
  %retval.0 = phi i8 [ 1, %for.body ], [ 0, %for.cond ]
  ret i8 %retval.0
}